target datalayout = "e-m:e-p270:32:32-p271:32:32-p272:64:64-i64:64-i128:128-f80:128-n8:16:32:64-S128"
target triple = "x86_64-pc-linux-gnu"

@.str = private unnamed_addr constant [48 x i8] c"conjugate_gradient: unexpected length 0 vector\0A\00", align 1
@stderr = external global ptr, align 8
@.str.1 = private unnamed_addr constant [58 x i8] c"integer overflow when trying to allocate %zu * %zu bytes\0A\00", align 1
@.str.2 = private unnamed_addr constant [49 x i8] c"out of memory when trying to allocate %zu bytes\0A\00", align 1

; Function Attrs: inlinehint nounwind uwtable
define internal ptr @gv_calloc(i64 noundef %0, i64 noundef %1) #2 {
  %3 = alloca i64, align 8
  %4 = alloca i64, align 8
  %5 = alloca ptr, align 8
  store i64 %0, ptr %3, align 8, !tbaa !15
  store i64 %1, ptr %4, align 8, !tbaa !15
  %6 = load i64, ptr %3, align 8, !tbaa !15
  %7 = icmp ugt i64 %6, 0
  br i1 %7, label %8, label %18

8:                                                ; preds = %2
  %9 = load i64, ptr %3, align 8, !tbaa !15
  %10 = udiv i64 -1, %9
  %11 = load i64, ptr %4, align 8, !tbaa !15
  %12 = icmp ult i64 %10, %11
  br i1 %12, label %13, label %18

13:                                               ; preds = %8
  %14 = load ptr, ptr @stderr, align 8, !tbaa !17
  %15 = load i64, ptr %3, align 8, !tbaa !15
  %16 = load i64, ptr %4, align 8, !tbaa !15
  %17 = call i32 (ptr, ptr, ...) @fprintf(ptr noundef %14, ptr noundef @.str.1, i64 noundef %15, i64 noundef %16) #9
  call void @graphviz_exit(i32 noundef 1) #10
  unreachable

18:                                               ; preds = %8, %2
  call void @llvm.lifetime.start.p0(i64 8, ptr %5) #9
  %19 = load i64, ptr %3, align 8, !tbaa !15
  %20 = load i64, ptr %4, align 8, !tbaa !15
  %21 = call noalias ptr @calloc(i64 noundef %19, i64 noundef %20) #11
  store ptr %21, ptr %5, align 8, !tbaa !3
  %22 = load i64, ptr %3, align 8, !tbaa !15
  %23 = icmp ugt i64 %22, 0
  br i1 %23, label %24, label %36

24:                                               ; preds = %18
  %25 = load i64, ptr %4, align 8, !tbaa !15
  %26 = icmp ugt i64 %25, 0
  br i1 %26, label %27, label %36

27:                                               ; preds = %24
  %28 = load ptr, ptr %5, align 8, !tbaa !3
  %29 = icmp eq ptr %28, null
  br i1 %29, label %30, label %36

30:                                               ; preds = %27
  %31 = load ptr, ptr @stderr, align 8, !tbaa !17
  %32 = load i64, ptr %3, align 8, !tbaa !15
  %33 = load i64, ptr %4, align 8, !tbaa !15
  %34 = mul i64 %32, %33
  %35 = call i32 (ptr, ptr, ...) @fprintf(ptr noundef %31, ptr noundef @.str.2, i64 noundef %34) #9
  call void @graphviz_exit(i32 noundef 1) #10
  unreachable

36:                                               ; preds = %27, %24, %18
  %37 = load ptr, ptr %5, align 8, !tbaa !3
  call void @llvm.lifetime.end.p0(i64 8, ptr %5) #9
  ret ptr %37
}

; Function Attrs: nounwind uwtable
define i32 @conjugate_gradient_mkernel(ptr noundef %0, ptr noundef %1, ptr noundef %2, i32 noundef %3, double noundef %4, i32 noundef %5) #0 {
  %7 = alloca ptr, align 8
  %8 = alloca ptr, align 8
  %9 = alloca ptr, align 8
  %10 = alloca i32, align 4
  %11 = alloca double, align 8
  %12 = alloca i32, align 4
  %13 = alloca i32, align 4
  %14 = alloca i32, align 4
  %15 = alloca double, align 8
  %16 = alloca double, align 8
  %17 = alloca double, align 8
  %18 = alloca double, align 8
  %19 = alloca double, align 8
  %20 = alloca ptr, align 8
  %21 = alloca ptr, align 8
  %22 = alloca ptr, align 8
  %23 = alloca ptr, align 8
  %24 = alloca i64, align 8
  store ptr %0, ptr %7, align 8, !tbaa !26
  store ptr %1, ptr %8, align 8, !tbaa !26
  store ptr %2, ptr %9, align 8, !tbaa !26
  store i32 %3, ptr %10, align 4, !tbaa !9
  store double %4, ptr %11, align 8, !tbaa !11
  store i32 %5, ptr %12, align 4, !tbaa !9
  call void @llvm.lifetime.start.p0(i64 4, ptr %13) #9
  call void @llvm.lifetime.start.p0(i64 4, ptr %14) #9
  store i32 0, ptr %14, align 4, !tbaa !9
  call void @llvm.lifetime.start.p0(i64 8, ptr %15) #9
  call void @llvm.lifetime.start.p0(i64 8, ptr %16) #9
  call void @llvm.lifetime.start.p0(i64 8, ptr %17) #9
  call void @llvm.lifetime.start.p0(i64 8, ptr %18) #9
  call void @llvm.lifetime.start.p0(i64 8, ptr %19) #9
  call void @llvm.lifetime.start.p0(i64 8, ptr %20) #9
  %25 = load i32, ptr %10, align 4, !tbaa !9
  %26 = sext i32 %25 to i64
  %27 = call ptr @gv_calloc(i64 noundef %26, i64 noundef 4)
  store ptr %27, ptr %20, align 8, !tbaa !26
  call void @llvm.lifetime.start.p0(i64 8, ptr %21) #9
  %28 = load i32, ptr %10, align 4, !tbaa !9
  %29 = sext i32 %28 to i64
  %30 = call ptr @gv_calloc(i64 noundef %29, i64 noundef 4)
  store ptr %30, ptr %21, align 8, !tbaa !26
  call void @llvm.lifetime.start.p0(i64 8, ptr %22) #9
  %31 = load i32, ptr %10, align 4, !tbaa !9
  %32 = sext i32 %31 to i64
  %33 = call ptr @gv_calloc(i64 noundef %32, i64 noundef 4)
  store ptr %33, ptr %22, align 8, !tbaa !26
  call void @llvm.lifetime.start.p0(i64 8, ptr %23) #9
  %34 = load i32, ptr %10, align 4, !tbaa !9
  %35 = sext i32 %34 to i64
  %36 = call ptr @gv_calloc(i64 noundef %35, i64 noundef 4)
  store ptr %36, ptr %23, align 8, !tbaa !26
  %37 = load i32, ptr %10, align 4, !tbaa !9
  %38 = load ptr, ptr %8, align 8, !tbaa !26
  call void @orthog1f(i32 noundef %37, ptr noundef %38)
  %39 = load i32, ptr %10, align 4, !tbaa !9
  %40 = load ptr, ptr %9, align 8, !tbaa !26
  call void @orthog1f(i32 noundef %39, ptr noundef %40)
  %41 = load ptr, ptr %7, align 8, !tbaa !26
  %42 = load i32, ptr %10, align 4, !tbaa !9
  %43 = load ptr, ptr %8, align 8, !tbaa !26
  %44 = load ptr, ptr %23, align 8, !tbaa !26
  call void @right_mult_with_vector_ff(ptr noundef %41, i32 noundef %42, ptr noundef %43, ptr noundef %44)
  %45 = load i32, ptr %10, align 4, !tbaa !9
  %46 = load ptr, ptr %23, align 8, !tbaa !26
  call void @orthog1f(i32 noundef %45, ptr noundef %46)
  %47 = load i32, ptr %10, align 4, !tbaa !9
  %48 = load ptr, ptr %9, align 8, !tbaa !26
  %49 = load ptr, ptr %23, align 8, !tbaa !26
  %50 = load ptr, ptr %20, align 8, !tbaa !26
  call void @vectors_subtractionf(i32 noundef %47, ptr noundef %48, ptr noundef %49, ptr noundef %50)
  %51 = load i32, ptr %10, align 4, !tbaa !9
  %52 = load ptr, ptr %20, align 8, !tbaa !26
  %53 = load ptr, ptr %21, align 8, !tbaa !26
  call void @copy_vectorf(i32 noundef %51, ptr noundef %52, ptr noundef %53)
  %54 = load i32, ptr %10, align 4, !tbaa !9
  %55 = load ptr, ptr %20, align 8, !tbaa !26
  %56 = load ptr, ptr %20, align 8, !tbaa !26
  %57 = call double @vectors_inner_productf(i32 noundef %54, ptr noundef %55, ptr noundef %56)
  store double %57, ptr %17, align 8, !tbaa !11
  store i32 0, ptr %13, align 4, !tbaa !9
  br label %58

58:                                               ; preds = %148, %6
  %59 = load i32, ptr %13, align 4, !tbaa !9
  %60 = load i32, ptr %12, align 4, !tbaa !9
  %61 = icmp slt i32 %59, %60
  br i1 %61, label %62, label %68

62:                                               ; preds = %58
  %63 = load i32, ptr %10, align 4, !tbaa !9
  %64 = load ptr, ptr %20, align 8, !tbaa !26
  %65 = call double @max_absf(i32 noundef %63, ptr noundef %64)
  %66 = load double, ptr %11, align 8, !tbaa !11
  %67 = fcmp ogt double %65, %66
  br label %68

68:                                               ; preds = %62, %58
  %69 = phi i1 [ false, %58 ], [ %67, %62 ]
  br i1 %69, label %70, label %151

70:                                               ; preds = %68
  %71 = load i32, ptr %10, align 4, !tbaa !9
  %72 = load ptr, ptr %21, align 8, !tbaa !26
  call void @orthog1f(i32 noundef %71, ptr noundef %72)
  %73 = load i32, ptr %10, align 4, !tbaa !9
  %74 = load ptr, ptr %8, align 8, !tbaa !26
  call void @orthog1f(i32 noundef %73, ptr noundef %74)
  %75 = load i32, ptr %10, align 4, !tbaa !9
  %76 = load ptr, ptr %20, align 8, !tbaa !26
  call void @orthog1f(i32 noundef %75, ptr noundef %76)
  %77 = load ptr, ptr %7, align 8, !tbaa !26
  %78 = load i32, ptr %10, align 4, !tbaa !9
  %79 = load ptr, ptr %21, align 8, !tbaa !26
  %80 = load ptr, ptr %22, align 8, !tbaa !26
  call void @right_mult_with_vector_ff(ptr noundef %77, i32 noundef %78, ptr noundef %79, ptr noundef %80)
  %81 = load i32, ptr %10, align 4, !tbaa !9
  %82 = load ptr, ptr %22, align 8, !tbaa !26
  call void @orthog1f(i32 noundef %81, ptr noundef %82)
  %83 = load i32, ptr %10, align 4, !tbaa !9
  %84 = load ptr, ptr %21, align 8, !tbaa !26
  %85 = load ptr, ptr %22, align 8, !tbaa !26
  %86 = call double @vectors_inner_productf(i32 noundef %83, ptr noundef %84, ptr noundef %85)
  store double %86, ptr %19, align 8, !tbaa !11
  %87 = load double, ptr %19, align 8, !tbaa !11
  %88 = fcmp oeq double %87, 0.000000e+00
  br i1 %88, label %89, label %90

89:                                               ; preds = %70
  br label %151

90:                                               ; preds = %70
  %91 = load double, ptr %17, align 8, !tbaa !11
  %92 = load double, ptr %19, align 8, !tbaa !11
  %93 = fdiv double %91, %92
  store double %93, ptr %15, align 8, !tbaa !11
  %94 = load i32, ptr %10, align 4, !tbaa !9
  %95 = load ptr, ptr %8, align 8, !tbaa !26
  %96 = load double, ptr %15, align 8, !tbaa !11
  %97 = fptrunc double %96 to float
  %98 = load ptr, ptr %21, align 8, !tbaa !26
  call void @vectors_mult_additionf(i32 noundef %94, ptr noundef %95, float noundef %97, ptr noundef %98)
  %99 = load i32, ptr %13, align 4, !tbaa !9
  %100 = load i32, ptr %12, align 4, !tbaa !9
  %101 = sub nsw i32 %100, 1
  %102 = icmp slt i32 %99, %101
  br i1 %102, label %103, label %147

103:                                              ; preds = %90
  %104 = load i32, ptr %10, align 4, !tbaa !9
  %105 = load ptr, ptr %20, align 8, !tbaa !26
  %106 = load double, ptr %15, align 8, !tbaa !11
  %107 = fneg double %106
  %108 = fptrunc double %107 to float
  %109 = load ptr, ptr %22, align 8, !tbaa !26
  call void @vectors_mult_additionf(i32 noundef %104, ptr noundef %105, float noundef %108, ptr noundef %109)
  %110 = load i32, ptr %10, align 4, !tbaa !9
  %111 = load ptr, ptr %20, align 8, !tbaa !26
  %112 = load ptr, ptr %20, align 8, !tbaa !26
  %113 = call double @vectors_inner_productf(i32 noundef %110, ptr noundef %111, ptr noundef %112)
  store double %113, ptr %18, align 8, !tbaa !11
  %114 = load double, ptr %17, align 8, !tbaa !11
  %115 = fcmp oeq double %114, 0.000000e+00
  br i1 %115, label %116, label %117

116:                                              ; preds = %103
  store i32 1, ptr %14, align 4, !tbaa !9
  call void (ptr, ...) @agerrorf(ptr noundef @.str)
  br label %152

117:                                              ; preds = %103
  %118 = load double, ptr %18, align 8, !tbaa !11
  %119 = load double, ptr %17, align 8, !tbaa !11
  %120 = fdiv double %118, %119
  store double %120, ptr %16, align 8, !tbaa !11
  %121 = load double, ptr %18, align 8, !tbaa !11
  store double %121, ptr %17, align 8, !tbaa !11
  call void @llvm.lifetime.start.p0(i64 8, ptr %24) #9
  store i64 0, ptr %24, align 8, !tbaa !15
  br label %122

122:                                              ; preds = %143, %117
  %123 = load i64, ptr %24, align 8, !tbaa !15
  %124 = load i32, ptr %10, align 4, !tbaa !9
  %125 = sext i32 %124 to i64
  %126 = icmp ult i64 %123, %125
  br i1 %126, label %128, label %127

127:                                              ; preds = %122
  call void @llvm.lifetime.end.p0(i64 8, ptr %24) #9
  br label %146

128:                                              ; preds = %122
  %129 = load double, ptr %16, align 8, !tbaa !11
  %130 = fptrunc double %129 to float
  %131 = load ptr, ptr %21, align 8, !tbaa !26
  %132 = load i64, ptr %24, align 8, !tbaa !15
  %133 = getelementptr inbounds nuw float, ptr %131, i64 %132
  %134 = load float, ptr %133, align 4, !tbaa !28
  %135 = load ptr, ptr %20, align 8, !tbaa !26
  %136 = load i64, ptr %24, align 8, !tbaa !15
  %137 = getelementptr inbounds nuw float, ptr %135, i64 %136
  %138 = load float, ptr %137, align 4, !tbaa !28
  %139 = call float @llvm.fmuladd.f32(float %130, float %134, float %138)
  %140 = load ptr, ptr %21, align 8, !tbaa !26
  %141 = load i64, ptr %24, align 8, !tbaa !15
  %142 = getelementptr inbounds nuw float, ptr %140, i64 %141
  store float %139, ptr %142, align 4, !tbaa !28
  br label %143

143:                                              ; preds = %128
  %144 = load i64, ptr %24, align 8, !tbaa !15
  %145 = add i64 %144, 1
  store i64 %145, ptr %24, align 8, !tbaa !15
  br label %122, !llvm.loop !30

146:                                              ; preds = %127
  br label %147

147:                                              ; preds = %146, %90
  br label %148

148:                                              ; preds = %147
  %149 = load i32, ptr %13, align 4, !tbaa !9
  %150 = add nsw i32 %149, 1
  store i32 %150, ptr %13, align 4, !tbaa !9
  br label %58, !llvm.loop !31

151:                                              ; preds = %89, %68
  br label %152

152:                                              ; preds = %151, %116
  %153 = load ptr, ptr %20, align 8, !tbaa !26
  call void @free(ptr noundef %153) #9
  %154 = load ptr, ptr %21, align 8, !tbaa !26
  call void @free(ptr noundef %154) #9
  %155 = load ptr, ptr %22, align 8, !tbaa !26
  call void @free(ptr noundef %155) #9
  %156 = load ptr, ptr %23, align 8, !tbaa !26
  call void @free(ptr noundef %156) #9
  %157 = load i32, ptr %14, align 4, !tbaa !9
  call void @llvm.lifetime.end.p0(i64 8, ptr %23) #9
  call void @llvm.lifetime.end.p0(i64 8, ptr %22) #9
  call void @llvm.lifetime.end.p0(i64 8, ptr %21) #9
  call void @llvm.lifetime.end.p0(i64 8, ptr %20) #9
  call void @llvm.lifetime.end.p0(i64 8, ptr %19) #9
  call void @llvm.lifetime.end.p0(i64 8, ptr %18) #9
  call void @llvm.lifetime.end.p0(i64 8, ptr %17) #9
  call void @llvm.lifetime.end.p0(i64 8, ptr %16) #9
  call void @llvm.lifetime.end.p0(i64 8, ptr %15) #9
  call void @llvm.lifetime.end.p0(i64 4, ptr %14) #9
  call void @llvm.lifetime.end.p0(i64 4, ptr %13) #9
  ret i32 %157
}