; Function Attrs: nounwind uwtable
define range(i32 0, 2) i32 @conjugate_gradient_mkernel(ptr noundef %0, ptr noundef %1, ptr noundef %2, i32 noundef %3, double noundef %4, i32 noundef %5) local_unnamed_addr #0 {
  %7 = sext i32 %3 to i64
  %.not.i = icmp eq i32 %3, 0
  br i1 %.not.i, label %.thread.i97, label %8

8:                                                ; preds = %6
  %mul.ov.i = icmp slt i32 %3, 0
  br i1 %mul.ov.i, label %9, label %12

9:                                                ; preds = %8
  %10 = load ptr, ptr @stderr, align 8, !tbaa !3
  %11 = tail call i32 (ptr, ptr, ...) @fprintf(ptr noundef %10, ptr noundef nonnull @.str.1, i64 noundef range(i64 -2147483648, 2147483648) %7, i64 noundef 4) #8
  tail call fastcc void @graphviz_exit() #9
  unreachable

12:                                               ; preds = %8
  %13 = tail call noalias ptr @calloc(i64 noundef range(i64 -2147483648, 2147483648) %7, i64 noundef 4) #10
  %14 = icmp eq ptr %13, null
  br i1 %14, label %15, label %gv_calloc.exit

15:                                               ; preds = %12
  %16 = load ptr, ptr @stderr, align 8, !tbaa !3
  %17 = shl nuw nsw i64 %7, 2
  %18 = tail call i32 (ptr, ptr, ...) @fprintf(ptr noundef %16, ptr noundef nonnull @.str.2, i64 noundef %17) #8
  tail call fastcc void @graphviz_exit() #9
  unreachable

gv_calloc.exit:                                   ; preds = %12
  %19 = tail call noalias ptr @calloc(i64 noundef range(i64 -2147483648, 2147483648) %7, i64 noundef 4) #10
  %20 = icmp eq ptr %19, null
  br i1 %20, label %21, label %gv_calloc.exit88

21:                                               ; preds = %gv_calloc.exit
  %22 = load ptr, ptr @stderr, align 8, !tbaa !3
  %23 = shl nuw nsw i64 %7, 2
  %24 = tail call i32 (ptr, ptr, ...) @fprintf(ptr noundef %22, ptr noundef nonnull @.str.2, i64 noundef %23) #8
  tail call fastcc void @graphviz_exit() #9
  unreachable

gv_calloc.exit88:                                 ; preds = %gv_calloc.exit
  %25 = tail call noalias ptr @calloc(i64 noundef range(i64 -2147483648, 2147483648) %7, i64 noundef 4) #10
  %26 = icmp eq ptr %25, null
  br i1 %26, label %27, label %gv_calloc.exit93

27:                                               ; preds = %gv_calloc.exit88
  %28 = load ptr, ptr @stderr, align 8, !tbaa !3
  %29 = shl nuw nsw i64 %7, 2
  %30 = tail call i32 (ptr, ptr, ...) @fprintf(ptr noundef %28, ptr noundef nonnull @.str.2, i64 noundef %29) #8
  tail call fastcc void @graphviz_exit() #9
  unreachable

.thread.i97:                                      ; preds = %6
  %31 = tail call noalias ptr @calloc(i64 noundef 0, i64 noundef 4) #10
  %32 = tail call noalias ptr @calloc(i64 noundef 0, i64 noundef 4) #10
  %33 = tail call noalias ptr @calloc(i64 noundef 0, i64 noundef 4) #10
  %34 = tail call noalias ptr @calloc(i64 noundef 0, i64 noundef 4) #10
  br label %gv_calloc.exit98

gv_calloc.exit93:                                 ; preds = %gv_calloc.exit88
  %35 = tail call noalias ptr @calloc(i64 noundef range(i64 -2147483648, 2147483648) %7, i64 noundef 4) #10
  %36 = icmp eq ptr %35, null
  br i1 %36, label %37, label %gv_calloc.exit98

37:                                               ; preds = %gv_calloc.exit93
  %38 = load ptr, ptr @stderr, align 8, !tbaa !3
  %39 = shl nuw nsw i64 %7, 2
  %40 = tail call i32 (ptr, ptr, ...) @fprintf(ptr noundef %38, ptr noundef nonnull @.str.2, i64 noundef %39) #8
  tail call fastcc void @graphviz_exit() #9
  unreachable

gv_calloc.exit98:                                 ; preds = %.thread.i97, %gv_calloc.exit93
  %41 = phi ptr [ %33, %.thread.i97 ], [ %25, %gv_calloc.exit93 ]
  %42 = phi ptr [ %31, %.thread.i97 ], [ %13, %gv_calloc.exit93 ]
  %43 = phi ptr [ %32, %.thread.i97 ], [ %19, %gv_calloc.exit93 ]
  %44 = phi ptr [ %34, %.thread.i97 ], [ %35, %gv_calloc.exit93 ]
  tail call void @orthog1f(i32 noundef %3, ptr noundef %1) #11
  tail call void @orthog1f(i32 noundef %3, ptr noundef %2) #11
  tail call void @right_mult_with_vector_ff(ptr noundef %0, i32 noundef %3, ptr noundef %1, ptr noundef %44) #11
  tail call void @orthog1f(i32 noundef %3, ptr noundef %44) #11
  tail call void @vectors_subtractionf(i32 noundef %3, ptr noundef %2, ptr noundef %44, ptr noundef %42) #11
  tail call void @copy_vectorf(i32 noundef %3, ptr noundef %42, ptr noundef %43) #11
  %45 = tail call double @vectors_inner_productf(i32 noundef %3, ptr noundef %42, ptr noundef %42) #11
  %46 = icmp sgt i32 %5, 0
  br i1 %46, label %.lr.ph105, label %.critedge

.lr.ph105:                                        ; preds = %gv_calloc.exit98
  %47 = add nsw i32 %5, -1
  br label %48

48:                                               ; preds = %.lr.ph105, %.loopexit
  %.079104 = phi i32 [ 0, %.lr.ph105 ], [ %73, %.loopexit ]
  %.081103 = phi double [ %45, %.lr.ph105 ], [ %.1, %.loopexit ]
  %49 = tail call double @max_absf(i32 noundef %3, ptr noundef %42) #11
  %50 = fcmp ogt double %49, %4
  br i1 %50, label %51, label %.critedge

51:                                               ; preds = %48
  tail call void @orthog1f(i32 noundef %3, ptr noundef %43) #11
  tail call void @orthog1f(i32 noundef %3, ptr noundef %1) #11
  tail call void @orthog1f(i32 noundef %3, ptr noundef %42) #11
  tail call void @right_mult_with_vector_ff(ptr noundef %0, i32 noundef %3, ptr noundef %43, ptr noundef %41) #11
  tail call void @orthog1f(i32 noundef %3, ptr noundef %41) #11
  %52 = tail call double @vectors_inner_productf(i32 noundef %3, ptr noundef %43, ptr noundef %41) #11
  %53 = fcmp oeq double %52, 0.000000e+00
  br i1 %53, label %.critedge, label %54

54:                                               ; preds = %51
  %55 = fdiv double %.081103, %52
  %56 = fptrunc double %55 to float
  tail call void @vectors_mult_additionf(i32 noundef %3, ptr noundef %1, float noundef %56, ptr noundef %43) #11
  %57 = icmp slt i32 %.079104, %47
  br i1 %57, label %58, label %.loopexit

58:                                               ; preds = %54
  %59 = fneg float %56
  tail call void @vectors_mult_additionf(i32 noundef %3, ptr noundef %42, float noundef %59, ptr noundef %41) #11
  %60 = tail call double @vectors_inner_productf(i32 noundef %3, ptr noundef %42, ptr noundef %42) #11
  %61 = fcmp oeq double %.081103, 0.000000e+00
  br i1 %61, label %62, label %63

62:                                               ; preds = %58
  tail call void (ptr, ...) @agerrorf(ptr noundef nonnull @.str) #11
  br label %.critedge

63:                                               ; preds = %58
  br i1 %.not.i, label %.loopexit, label %.lr.ph

.lr.ph:                                           ; preds = %63
  %64 = fdiv double %60, %.081103
  %65 = fptrunc double %64 to float
  br label %66

66:                                               ; preds = %.lr.ph, %66
  %.0102 = phi i64 [ 0, %.lr.ph ], [ %72, %66 ]
  %67 = getelementptr inbounds nuw float, ptr %43, i64 %.0102
  %68 = load float, ptr %67, align 4, !tbaa !11
  %69 = getelementptr inbounds nuw float, ptr %42, i64 %.0102
  %70 = load float, ptr %69, align 4, !tbaa !11
  %71 = tail call float @llvm.fmuladd.f32(float %65, float %68, float %70)
  store float %71, ptr %67, align 4, !tbaa !11
  %72 = add nuw i64 %.0102, 1
  %exitcond.not = icmp eq i64 %72, %7
  br i1 %exitcond.not, label %.loopexit, label %66, !llvm.loop !13

.loopexit:                                        ; preds = %66, %63, %54
  %.1 = phi double [ %.081103, %54 ], [ %60, %63 ], [ %60, %66 ]
  %73 = add nuw nsw i32 %.079104, 1
  %exitcond108.not = icmp eq i32 %73, %5
  br i1 %exitcond108.not, label %.critedge, label %48, !llvm.loop !14

.critedge:                                        ; preds = %.loopexit, %51, %48, %gv_calloc.exit98, %62
  %.080 = phi i32 [ 1, %62 ], [ 0, %gv_calloc.exit98 ], [ 0, %48 ], [ 0, %51 ], [ 0, %.loopexit ]
  tail call void @free(ptr noundef %42) #11
  tail call void @free(ptr noundef %43) #11
  tail call void @free(ptr noundef %41) #11
  tail call void @free(ptr noundef %44) #11
  ret i32 %.080
}